; Function Attrs: nounwind uwtable
define ptr @l_Lean_Compiler_LCNF_Testing_assertDoesNotContainConstAfter___lambda__1___boxed(ptr noundef %0, ptr noundef %1, ptr noundef %2) #0 {
  %4 = getelementptr inbounds nuw i8, ptr %2, i64 40
  %5 = load ptr, ptr %4, align 8, !tbaa !7
  %6 = ptrtoint ptr %5 to i64
  %7 = and i64 %6, 1
  %.not.i.i = icmp eq i64 %7, 0
  br i1 %.not.i.i, label %11, label %8

8:                                                ; preds = %3
  %9 = lshr i64 %6, 1
  %10 = trunc i64 %9 to i32
  br label %lean_obj_tag.exit.i

11:                                               ; preds = %3
  %12 = getelementptr i8, ptr %5, i64 4
  %.val.i.i = load i32, ptr %12, align 4
  %13 = lshr i32 %.val.i.i, 24
  br label %lean_obj_tag.exit.i

lean_obj_tag.exit.i:                              ; preds = %11, %8
  %.0.i.i = phi i32 [ %10, %8 ], [ %13, %11 ]
  %14 = icmp eq i32 %.0.i.i, 0
  br i1 %14, label %15, label %l_Lean_Compiler_LCNF_Testing_assertDoesNotContainConstAfter___lambda__1.exit

15:                                               ; preds = %lean_obj_tag.exit.i
  %16 = getelementptr inbounds nuw i8, ptr %5, i64 8
  %17 = load ptr, ptr %16, align 8, !tbaa !7
  %18 = tail call zeroext i8 @l_Lean_Compiler_LCNF_Code_containsConst(ptr noundef %0, ptr noundef %17)
  %..i = shl nuw nsw i8 %18, 1
  %19 = xor i8 %..i, 3
  %20 = zext nneg i8 %19 to i64
  br label %l_Lean_Compiler_LCNF_Testing_assertDoesNotContainConstAfter___lambda__1.exit

l_Lean_Compiler_LCNF_Testing_assertDoesNotContainConstAfter___lambda__1.exit: ; preds = %lean_obj_tag.exit.i, %15
  %.1.i = phi i64 [ %20, %15 ], [ 3, %lean_obj_tag.exit.i ]
  %21 = ptrtoint ptr %2 to i64
  %22 = and i64 %21, 1
  %.not = icmp eq i64 %22, 0
  br i1 %.not, label %23, label %lean_dec.exit8

23:                                               ; preds = %l_Lean_Compiler_LCNF_Testing_assertDoesNotContainConstAfter___lambda__1.exit
  %24 = load i32, ptr %2, align 4, !tbaa !9
  %25 = icmp sgt i32 %24, 1
  br i1 %25, label %26, label %28, !prof !12

26:                                               ; preds = %23
  %27 = add nsw i32 %24, -1
  store i32 %27, ptr %2, align 4, !tbaa !9
  br label %lean_dec.exit8

28:                                               ; preds = %23
  %.not.i = icmp eq i32 %24, 0
  br i1 %.not.i, label %lean_dec.exit8, label %29

29:                                               ; preds = %28
  tail call void @lean_dec_ref_cold(ptr noundef nonnull %2) #5
  br label %lean_dec.exit8

lean_dec.exit8:                                   ; preds = %29, %28, %26, %l_Lean_Compiler_LCNF_Testing_assertDoesNotContainConstAfter___lambda__1.exit
  %30 = ptrtoint ptr %1 to i64
  %31 = and i64 %30, 1
  %.not13 = icmp eq i64 %31, 0
  br i1 %.not13, label %32, label %lean_dec.exit7

32:                                               ; preds = %lean_dec.exit8
  %33 = load i32, ptr %1, align 4, !tbaa !9
  %34 = icmp sgt i32 %33, 1
  br i1 %34, label %35, label %37, !prof !12

35:                                               ; preds = %32
  %36 = add nsw i32 %33, -1
  store i32 %36, ptr %1, align 4, !tbaa !9
  br label %lean_dec.exit7

37:                                               ; preds = %32
  %.not.i9 = icmp eq i32 %33, 0
  br i1 %.not.i9, label %lean_dec.exit7, label %38

38:                                               ; preds = %37
  tail call void @lean_dec_ref_cold(ptr noundef nonnull %1) #5
  br label %lean_dec.exit7

lean_dec.exit7:                                   ; preds = %38, %37, %35, %lean_dec.exit8
  %39 = ptrtoint ptr %0 to i64
  %40 = and i64 %39, 1
  %.not14 = icmp eq i64 %40, 0
  br i1 %.not14, label %41, label %lean_dec.exit

41:                                               ; preds = %lean_dec.exit7
  %42 = load i32, ptr %0, align 4, !tbaa !9
  %43 = icmp sgt i32 %42, 1
  br i1 %43, label %44, label %46, !prof !12

44:                                               ; preds = %41
  %45 = add nsw i32 %42, -1
  store i32 %45, ptr %0, align 4, !tbaa !9
  br label %lean_dec.exit

46:                                               ; preds = %41
  %.not.i11 = icmp eq i32 %42, 0
  br i1 %.not.i11, label %lean_dec.exit, label %47

47:                                               ; preds = %46
  tail call void @lean_dec_ref_cold(ptr noundef nonnull %0) #5
  br label %lean_dec.exit

lean_dec.exit:                                    ; preds = %47, %46, %44, %lean_dec.exit7
  %48 = inttoptr i64 %.1.i to ptr
  ret ptr %48
}